target datalayout = "e-m:e-p270:32:32-p271:32:32-p272:64:64-i64:64-i128:128-f80:128-n8:16:32:64-S128"
target triple = "x86_64-pc-linux-gnu"

%struct.pg_compress_specification = type { i32, i32, i32, i32, i8, ptr }
%struct._archiveHandle = type { %struct.Archive, i32, ptr, ptr, i64, i64, i32, %struct.sqlparseInfo, i64, i32, ptr, i64, i64, i64, ptr, ptr, ptr, ptr, ptr, ptr, ptr, ptr, ptr, ptr, ptr, ptr, ptr, ptr, ptr, ptr, ptr, ptr, ptr, ptr, ptr, ptr, ptr, ptr, ptr, ptr, ptr, ptr, ptr, ptr, i32, i32, i8, i32, i8, i32, ptr, ptr, ptr, ptr, i32, i32, ptr, ptr, ptr, %struct.pg_compress_specification, i8, i32, i32, ptr, ptr, ptr, ptr, ptr, i32, ptr, i64, i64, i32, i32, i32, i32, ptr, ptr }
%struct.Archive = type { ptr, ptr, i32, ptr, i32, i8, i32, i32, i32, ptr, i32, i8, ptr, ptr, i8, i32, ptr }
%struct.sqlparseInfo = type { i32, i8, ptr }

; Function Attrs: nounwind uwtable
define dso_local i64 @WriteInt(ptr noundef %0, i32 noundef %1) #0 {
  %3 = alloca ptr, align 8
  %4 = alloca i32, align 4
  %5 = alloca i32, align 4
  store ptr %0, ptr %3, align 8
  store i32 %1, ptr %4, align 4
  call void @llvm.lifetime.start.p0(i64 4, ptr %5) #11
  %6 = load i32, ptr %4, align 4
  %7 = icmp slt i32 %6, 0
  br i1 %7, label %8, label %16

8:                                                ; preds = %2
  %9 = load ptr, ptr %3, align 8
  %10 = getelementptr inbounds nuw %struct._archiveHandle, ptr %9, i32 0, i32 18
  %11 = load ptr, ptr %10, align 8
  %12 = load ptr, ptr %3, align 8
  %13 = call i32 %11(ptr noundef %12, i32 noundef 1)
  %14 = load i32, ptr %4, align 4
  %15 = sub i32 0, %14
  store i32 %15, ptr %4, align 4
  br label %22

16:                                               ; preds = %2
  %17 = load ptr, ptr %3, align 8
  %18 = getelementptr inbounds nuw %struct._archiveHandle, ptr %17, i32 0, i32 18
  %19 = load ptr, ptr %18, align 8
  %20 = load ptr, ptr %3, align 8
  %21 = call i32 %19(ptr noundef %20, i32 noundef 0)
  br label %22

22:                                               ; preds = %16, %8
  store i32 0, ptr %5, align 4
  br label %23

23:                                               ; preds = %40, %22
  %24 = load i32, ptr %5, align 4
  %25 = sext i32 %24 to i64
  %26 = load ptr, ptr %3, align 8
  %27 = getelementptr inbounds nuw %struct._archiveHandle, ptr %26, i32 0, i32 4
  %28 = load i64, ptr %27, align 8
  %29 = icmp ult i64 %25, %28
  br i1 %29, label %30, label %43

30:                                               ; preds = %23
  %31 = load ptr, ptr %3, align 8
  %32 = getelementptr inbounds nuw %struct._archiveHandle, ptr %31, i32 0, i32 18
  %33 = load ptr, ptr %32, align 8
  %34 = load ptr, ptr %3, align 8
  %35 = load i32, ptr %4, align 4
  %36 = and i32 %35, 255
  %37 = call i32 %33(ptr noundef %34, i32 noundef %36)
  %38 = load i32, ptr %4, align 4
  %39 = ashr i32 %38, 8
  store i32 %39, ptr %4, align 4
  br label %40

40:                                               ; preds = %30
  %41 = load i32, ptr %5, align 4
  %42 = add i32 %41, 1
  store i32 %42, ptr %5, align 4
  br label %23, !llvm.loop !26

43:                                               ; preds = %23
  %44 = load ptr, ptr %3, align 8
  %45 = getelementptr inbounds nuw %struct._archiveHandle, ptr %44, i32 0, i32 4
  %46 = load i64, ptr %45, align 8
  %47 = add i64 %46, 1
  call void @llvm.lifetime.end.p0(i64 4, ptr %5) #11
  ret i64 %47
}

; Function Attrs: nounwind uwtable
define dso_local i64 @WriteStr(ptr noundef %0, ptr noundef %1) #0 {
  %3 = alloca ptr, align 8
  %4 = alloca ptr, align 8
  %5 = alloca i64, align 8
  %6 = alloca i32, align 4
  store ptr %0, ptr %3, align 8
  store ptr %1, ptr %4, align 8
  call void @llvm.lifetime.start.p0(i64 8, ptr %5) #11
  %7 = load ptr, ptr %4, align 8
  %8 = icmp ne ptr %7, null
  br i1 %8, label %9, label %27

9:                                                ; preds = %2
  call void @llvm.lifetime.start.p0(i64 4, ptr %6) #11
  %10 = load ptr, ptr %4, align 8
  %11 = call i64 @strlen(ptr noundef %10) #14
  %12 = trunc i64 %11 to i32
  store i32 %12, ptr %6, align 4
  %13 = load ptr, ptr %3, align 8
  %14 = load i32, ptr %6, align 4
  %15 = call i64 @WriteInt(ptr noundef %13, i32 noundef %14)
  store i64 %15, ptr %5, align 8
  %16 = load ptr, ptr %3, align 8
  %17 = getelementptr inbounds nuw %struct._archiveHandle, ptr %16, i32 0, i32 20
  %18 = load ptr, ptr %17, align 8
  %19 = load ptr, ptr %3, align 8
  %20 = load ptr, ptr %4, align 8
  %21 = load i32, ptr %6, align 4
  %22 = sext i32 %21 to i64
  call void %18(ptr noundef %19, ptr noundef %20, i64 noundef %22)
  %23 = load i32, ptr %6, align 4
  %24 = sext i32 %23 to i64
  %25 = load i64, ptr %5, align 8
  %26 = add i64 %25, %24
  store i64 %26, ptr %5, align 8
  call void @llvm.lifetime.end.p0(i64 4, ptr %6) #11
  br label %30

27:                                               ; preds = %2
  %28 = load ptr, ptr %3, align 8
  %29 = call i64 @WriteInt(ptr noundef %28, i32 noundef -1)
  store i64 %29, ptr %5, align 8
  br label %30

30:                                               ; preds = %27, %9
  %31 = load i64, ptr %5, align 8
  call void @llvm.lifetime.end.p0(i64 8, ptr %5) #11
  ret i64 %31
}