; Function Attrs: nounwind uwtable
define dso_local i64 @WriteStr(ptr noundef %0, ptr noundef %1) local_unnamed_addr #0 {
  %.not = icmp eq ptr %1, null
  br i1 %.not, label %30, label %3

3:                                                ; preds = %2
  %4 = tail call i64 @strlen(ptr noundef nonnull dereferenceable(1) %1) #24
  %5 = trunc i64 %4 to i32
  %6 = icmp slt i32 %5, 0
  %7 = getelementptr inbounds nuw i8, ptr %0, i64 248
  %8 = load ptr, ptr %7, align 8
  br i1 %6, label %9, label %12

9:                                                ; preds = %3
  %10 = tail call i32 %8(ptr noundef nonnull %0, i32 noundef 1) #22
  %11 = sub i32 0, %5
  br label %14

12:                                               ; preds = %3
  %13 = tail call i32 %8(ptr noundef nonnull %0, i32 noundef 0) #22
  br label %14

14:                                               ; preds = %12, %9
  %.013.i = phi i32 [ %11, %9 ], [ %5, %12 ]
  %15 = getelementptr inbounds nuw i8, ptr %0, i64 128
  %16 = load i64, ptr %15, align 8
  %.not.i = icmp eq i64 %16, 0
  br i1 %.not.i, label %WriteInt.exit, label %.lr.ph.i

.lr.ph.i:                                         ; preds = %14, %.lr.ph.i
  %.018.i = phi i32 [ %21, %.lr.ph.i ], [ 0, %14 ]
  %.117.i = phi i32 [ %20, %.lr.ph.i ], [ %.013.i, %14 ]
  %17 = load ptr, ptr %7, align 8
  %18 = and i32 %.117.i, 255
  %19 = tail call i32 %17(ptr noundef nonnull %0, i32 noundef %18) #22
  %20 = ashr i32 %.117.i, 8
  %21 = add i32 %.018.i, 1
  %22 = sext i32 %21 to i64
  %23 = load i64, ptr %15, align 8
  %24 = icmp ugt i64 %23, %22
  br i1 %24, label %.lr.ph.i, label %._crit_edge.loopexit.i, !llvm.loop !47

._crit_edge.loopexit.i:                           ; preds = %.lr.ph.i
  %25 = add i64 %23, 1
  br label %WriteInt.exit

WriteInt.exit:                                    ; preds = %14, %._crit_edge.loopexit.i
  %.lcssa.i = phi i64 [ 1, %14 ], [ %25, %._crit_edge.loopexit.i ]
  %26 = getelementptr inbounds nuw i8, ptr %0, i64 264
  %27 = load ptr, ptr %26, align 8
  %sext = shl i64 %4, 32
  %28 = ashr exact i64 %sext, 32
  tail call void %27(ptr noundef nonnull %0, ptr noundef nonnull %1, i64 noundef %28) #22
  %29 = add i64 %.lcssa.i, %28
  br label %WriteInt.exit19

30:                                               ; preds = %2
  %31 = getelementptr inbounds nuw i8, ptr %0, i64 248
  %32 = load ptr, ptr %31, align 8
  %33 = tail call i32 %32(ptr noundef %0, i32 noundef 1) #22
  %34 = getelementptr inbounds nuw i8, ptr %0, i64 128
  %35 = load i64, ptr %34, align 8
  %.not.i13 = icmp eq i64 %35, 0
  br i1 %.not.i13, label %WriteInt.exit19, label %.lr.ph.i14

.lr.ph.i14:                                       ; preds = %30, %.lr.ph.i14
  %.018.i15 = phi i32 [ %38, %.lr.ph.i14 ], [ 0, %30 ]
  %.117.i16 = phi i32 [ 0, %.lr.ph.i14 ], [ 1, %30 ]
  %36 = load ptr, ptr %31, align 8
  %37 = tail call i32 %36(ptr noundef nonnull %0, i32 noundef %.117.i16) #22
  %38 = add i32 %.018.i15, 1
  %39 = sext i32 %38 to i64
  %40 = load i64, ptr %34, align 8
  %41 = icmp ugt i64 %40, %39
  br i1 %41, label %.lr.ph.i14, label %._crit_edge.loopexit.i17, !llvm.loop !47

._crit_edge.loopexit.i17:                         ; preds = %.lr.ph.i14
  %42 = add i64 %40, 1
  br label %WriteInt.exit19

WriteInt.exit19:                                  ; preds = %._crit_edge.loopexit.i17, %30, %WriteInt.exit
  %.0 = phi i64 [ %29, %WriteInt.exit ], [ 1, %30 ], [ %42, %._crit_edge.loopexit.i17 ]
  ret i64 %.0
}